target datalayout = "e-m:e-p270:32:32-p271:32:32-p272:64:64-i64:64-i128:128-f80:128-n8:16:32:64-S128"
target triple = "x86_64-pc-linux-gnu"

%struct._packet_info = type { ptr, ptr, i32, i32, %struct.nstime_t, %struct.nstime_t, %struct.nstime_t, i8, ptr, ptr, ptr, ptr, %struct._address, %struct._address, %struct._address, %struct._address, %struct._address, %struct._address, i32, ptr, i8, [3 x i8], %struct.anon, i32, i32, i32, i32, ptr, i8, ptr, ptr, i16, i16, i32, i32, i16, i32, i32, ptr, ptr, ptr, i8, i8, i16, i16, i16, i32, i16, i16, ptr, ptr, ptr, ptr, ptr, i32, i32 }
%struct.nstime_t = type { i64, i32 }
%struct._address = type { i32, i32, ptr, ptr }
%struct.anon = type { i8, [3 x i8] }

@hf_kink_type = internal global i32 0, align 4
@hf_kink_length = internal global i32 0, align 4
@hf_kink_transactionId = internal global i32 0, align 4
@hf_kink_checkSumLength = internal global i32 0, align 4
@hf_kink_A = internal global i32 0, align 4
@hf_kink_version = internal global i32 0, align 4
@hf_kink_domain_of_interpretation = internal global i32 0, align 4
@hf_kink_reserved15 = internal global i32 0, align 4
@hf_kink_checkSum = internal global i32 0, align 4
@hf_kink_next_payload = internal global i32 0, align 4
@ett_kink = internal global i32 0, align 4
@.str.49 = private unnamed_addr constant [5 x i8] c"KINK\00", align 1
@proto_kink = internal global i32 0, align 4
@.str.83 = private unnamed_addr constant [8 x i8] c"unknown\00", align 1
@.str.84 = private unnamed_addr constant [11 x i8] c"IPsec (%u)\00", align 1
@.str.85 = private unnamed_addr constant [15 x i8] c"Not IPsec (%u)\00", align 1

; Function Attrs: null_pointer_is_valid sspstrong uwtable
define internal i32 @dissect_kink(ptr noundef %0, ptr noundef %1, ptr noundef %2, ptr noundef %3) #0 {
  %5 = alloca ptr, align 8
  %6 = alloca ptr, align 8
  %7 = alloca ptr, align 8
  %8 = alloca ptr, align 8
  %9 = alloca ptr, align 8
  %10 = alloca ptr, align 8
  %11 = alloca i8, align 1
  %12 = alloca i32, align 4
  %13 = alloca i32, align 4
  %14 = alloca i8, align 1
  %15 = alloca i8, align 1
  %16 = alloca i8, align 1
  %17 = alloca i32, align 4
  store ptr %0, ptr %5, align 8
  store ptr %1, ptr %6, align 8
  store ptr %2, ptr %7, align 8
  store ptr %3, ptr %8, align 8
  call void @llvm.lifetime.start.p0(i64 8, ptr %9) #4
  store ptr null, ptr %9, align 8
  call void @llvm.lifetime.start.p0(i64 8, ptr %10) #4
  store ptr null, ptr %10, align 8
  call void @llvm.lifetime.start.p0(i64 1, ptr %11) #4
  call void @llvm.lifetime.start.p0(i64 4, ptr %12) #4
  call void @llvm.lifetime.start.p0(i64 4, ptr %13) #4
  call void @llvm.lifetime.start.p0(i64 1, ptr %14) #4
  call void @llvm.lifetime.start.p0(i64 1, ptr %15) #4
  call void @llvm.lifetime.start.p0(i64 1, ptr %16) #4
  call void @llvm.lifetime.start.p0(i64 4, ptr %17) #4
  store i32 0, ptr %17, align 4
  %18 = load ptr, ptr %5, align 8
  %19 = load i32, ptr %17, align 4
  %20 = call zeroext i8 @tvb_get_uint8(ptr noundef %18, i32 noundef %19)
  store i8 %20, ptr %11, align 1
  %21 = load ptr, ptr %6, align 8
  %22 = getelementptr inbounds nuw %struct._packet_info, ptr %21, i32 0, i32 1
  %23 = load ptr, ptr %22, align 8
  call void @col_set_str(ptr noundef %23, i32 noundef 35, ptr noundef @.str.49)
  %24 = load ptr, ptr %6, align 8
  %25 = getelementptr inbounds nuw %struct._packet_info, ptr %24, i32 0, i32 1
  %26 = load ptr, ptr %25, align 8
  %27 = load i8, ptr %11, align 1
  %28 = zext i8 %27 to i32
  %29 = call ptr @val_to_str_const(i32 noundef %28, ptr noundef @kink_type_vals, ptr noundef @.str.83)
  call void @col_set_str(ptr noundef %26, i32 noundef 25, ptr noundef %29)
  %30 = load ptr, ptr %7, align 8
  %31 = load i32, ptr @proto_kink, align 4
  %32 = load ptr, ptr %5, align 8
  %33 = load i32, ptr %17, align 4
  %34 = call ptr @proto_tree_add_item(ptr noundef %30, i32 noundef %31, ptr noundef %32, i32 noundef %33, i32 noundef -1, i32 noundef 0)
  store ptr %34, ptr %9, align 8
  %35 = load ptr, ptr %9, align 8
  %36 = load i32, ptr @ett_kink, align 4
  %37 = call ptr @proto_item_add_subtree(ptr noundef %35, i32 noundef %36)
  store ptr %37, ptr %10, align 8
  %38 = load ptr, ptr %10, align 8
  %39 = load i32, ptr @hf_kink_type, align 4
  %40 = load ptr, ptr %5, align 8
  %41 = load i32, ptr %17, align 4
  %42 = load i8, ptr %11, align 1
  %43 = zext i8 %42 to i32
  %44 = call ptr @proto_tree_add_uint(ptr noundef %38, i32 noundef %39, ptr noundef %40, i32 noundef %41, i32 noundef 1, i32 noundef %43)
  %45 = load i32, ptr %17, align 4
  %46 = add i32 %45, 1
  store i32 %46, ptr %17, align 4
  %47 = load ptr, ptr %10, align 8
  %48 = load i32, ptr @hf_kink_version, align 4
  %49 = load ptr, ptr %5, align 8
  %50 = load i32, ptr %17, align 4
  %51 = call ptr @proto_tree_add_item(ptr noundef %47, i32 noundef %48, ptr noundef %49, i32 noundef %50, i32 noundef 1, i32 noundef 0)
  %52 = load i32, ptr %17, align 4
  %53 = add i32 %52, 1
  store i32 %53, ptr %17, align 4
  %54 = load ptr, ptr %10, align 8
  %55 = load i32, ptr @hf_kink_length, align 4
  %56 = load ptr, ptr %5, align 8
  %57 = load i32, ptr %17, align 4
  %58 = call ptr @proto_tree_add_item(ptr noundef %54, i32 noundef %55, ptr noundef %56, i32 noundef %57, i32 noundef 2, i32 noundef 0)
  %59 = load i32, ptr %17, align 4
  %60 = add i32 %59, 2
  store i32 %60, ptr %17, align 4
  %61 = load ptr, ptr %5, align 8
  %62 = load i32, ptr %17, align 4
  %63 = call i32 @tvb_get_ntohl(ptr noundef %61, i32 noundef %62)
  store i32 %63, ptr %12, align 4
  %64 = load i32, ptr %12, align 4
  %65 = icmp eq i32 %64, 1
  br i1 %65, label %66, label %74

66:                                               ; preds = %4
  %67 = load ptr, ptr %10, align 8
  %68 = load i32, ptr @hf_kink_domain_of_interpretation, align 4
  %69 = load ptr, ptr %5, align 8
  %70 = load i32, ptr %17, align 4
  %71 = load i32, ptr %12, align 4
  %72 = load i32, ptr %12, align 4
  %73 = call ptr (ptr, i32, ptr, i32, i32, i32, ptr, ...) @proto_tree_add_uint_format_value(ptr noundef %67, i32 noundef %68, ptr noundef %69, i32 noundef %70, i32 noundef 4, i32 noundef %71, ptr noundef @.str.84, i32 noundef %72)
  br label %82

74:                                               ; preds = %4
  %75 = load ptr, ptr %10, align 8
  %76 = load i32, ptr @hf_kink_domain_of_interpretation, align 4
  %77 = load ptr, ptr %5, align 8
  %78 = load i32, ptr %17, align 4
  %79 = load i32, ptr %12, align 4
  %80 = load i32, ptr %12, align 4
  %81 = call ptr (ptr, i32, ptr, i32, i32, i32, ptr, ...) @proto_tree_add_uint_format_value(ptr noundef %75, i32 noundef %76, ptr noundef %77, i32 noundef %78, i32 noundef 4, i32 noundef %79, ptr noundef @.str.85, i32 noundef %80)
  br label %82

82:                                               ; preds = %74, %66
  %83 = load i32, ptr %17, align 4
  %84 = add i32 %83, 4
  store i32 %84, ptr %17, align 4
  %85 = load ptr, ptr %10, align 8
  %86 = load i32, ptr @hf_kink_transactionId, align 4
  %87 = load ptr, ptr %5, align 8
  %88 = load i32, ptr %17, align 4
  %89 = call ptr @proto_tree_add_item(ptr noundef %85, i32 noundef %86, ptr noundef %87, i32 noundef %88, i32 noundef 4, i32 noundef 0)
  %90 = load i32, ptr %17, align 4
  %91 = add i32 %90, 4
  store i32 %91, ptr %17, align 4
  %92 = load ptr, ptr %5, align 8
  %93 = load i32, ptr %17, align 4
  %94 = call zeroext i8 @tvb_get_uint8(ptr noundef %92, i32 noundef %93)
  %95 = zext i8 %94 to i32
  store i32 %95, ptr %13, align 4
  %96 = load ptr, ptr %10, align 8
  %97 = load i32, ptr @hf_kink_checkSumLength, align 4
  %98 = load ptr, ptr %5, align 8
  %99 = load i32, ptr %17, align 4
  %100 = call ptr @proto_tree_add_item(ptr noundef %96, i32 noundef %97, ptr noundef %98, i32 noundef %99, i32 noundef 1, i32 noundef 0)
  %101 = load i32, ptr %17, align 4
  %102 = add i32 %101, 1
  store i32 %102, ptr %17, align 4
  %103 = load ptr, ptr %5, align 8
  %104 = load i32, ptr %17, align 4
  %105 = call zeroext i8 @tvb_get_uint8(ptr noundef %103, i32 noundef %104)
  store i8 %105, ptr %14, align 1
  %106 = load ptr, ptr %10, align 8
  %107 = load i32, ptr @hf_kink_next_payload, align 4
  %108 = load ptr, ptr %5, align 8
  %109 = load i32, ptr %17, align 4
  %110 = load i8, ptr %14, align 1
  %111 = zext i8 %110 to i32
  %112 = call ptr @proto_tree_add_uint(ptr noundef %106, i32 noundef %107, ptr noundef %108, i32 noundef %109, i32 noundef 1, i32 noundef %111)
  %113 = load i32, ptr %17, align 4
  %114 = add i32 %113, 1
  store i32 %114, ptr %17, align 4
  %115 = load ptr, ptr %5, align 8
  %116 = load i32, ptr %17, align 4
  %117 = call zeroext i8 @tvb_get_uint8(ptr noundef %115, i32 noundef %116)
  store i8 %117, ptr %15, align 1
  %118 = load i8, ptr %15, align 1
  %119 = zext i8 %118 to i32
  %120 = and i32 %119, 128
  %121 = ashr i32 %120, 7
  %122 = trunc i32 %121 to i8
  store i8 %122, ptr %16, align 1
  %123 = load ptr, ptr %10, align 8
  %124 = load i32, ptr @hf_kink_A, align 4
  %125 = load ptr, ptr %5, align 8
  %126 = load i32, ptr %17, align 4
  %127 = load i8, ptr %16, align 1
  %128 = zext i8 %127 to i32
  %129 = call ptr @proto_tree_add_uint(ptr noundef %123, i32 noundef %124, ptr noundef %125, i32 noundef %126, i32 noundef 1, i32 noundef %128)
  %130 = load ptr, ptr %10, align 8
  %131 = load i32, ptr @hf_kink_reserved15, align 4
  %132 = load ptr, ptr %5, align 8
  %133 = load i32, ptr %17, align 4
  %134 = call ptr @proto_tree_add_item(ptr noundef %130, i32 noundef %131, ptr noundef %132, i32 noundef %133, i32 noundef 2, i32 noundef 0)
  %135 = load i32, ptr %17, align 4
  %136 = add i32 %135, 2
  store i32 %136, ptr %17, align 4
  %137 = load ptr, ptr %10, align 8
  %138 = load i32, ptr @hf_kink_checkSum, align 4
  %139 = load ptr, ptr %5, align 8
  %140 = load i32, ptr %17, align 4
  %141 = load i32, ptr %13, align 4
  %142 = call ptr @proto_tree_add_item(ptr noundef %137, i32 noundef %138, ptr noundef %139, i32 noundef %140, i32 noundef %141, i32 noundef 0)
  %143 = load i32, ptr %13, align 4
  %144 = urem i32 %143, 4
  %145 = icmp ne i32 %144, 0
  br i1 %145, label %146, label %155

146:                                              ; preds = %82
  %147 = load i32, ptr %13, align 4
  %148 = urem i32 %147, 4
  %149 = sub i32 4, %148
  %150 = load i32, ptr %13, align 4
  %151 = add i32 %150, %149
  store i32 %151, ptr %13, align 4
  %152 = load i32, ptr %13, align 4
  %153 = load i32, ptr %17, align 4
  %154 = add i32 %153, %152
  store i32 %154, ptr %17, align 4
  br label %159

155:                                              ; preds = %82
  %156 = load i32, ptr %13, align 4
  %157 = load i32, ptr %17, align 4
  %158 = add i32 %157, %156
  store i32 %158, ptr %17, align 4
  br label %159

159:                                              ; preds = %155, %146
  %160 = load ptr, ptr %6, align 8
  %161 = load ptr, ptr %5, align 8
  %162 = load i32, ptr %17, align 4
  %163 = load i8, ptr %14, align 1
  %164 = load ptr, ptr %10, align 8
  call void @control_payload(ptr noundef %160, ptr noundef %161, i32 noundef %162, i8 noundef zeroext %163, ptr noundef %164)
  %165 = load ptr, ptr %5, align 8
  %166 = call i32 @tvb_captured_length(ptr noundef %165)
  call void @llvm.lifetime.end.p0(i64 4, ptr %17) #4
  call void @llvm.lifetime.end.p0(i64 1, ptr %16) #4
  call void @llvm.lifetime.end.p0(i64 1, ptr %15) #4
  call void @llvm.lifetime.end.p0(i64 1, ptr %14) #4
  call void @llvm.lifetime.end.p0(i64 4, ptr %13) #4
  call void @llvm.lifetime.end.p0(i64 4, ptr %12) #4
  call void @llvm.lifetime.end.p0(i64 1, ptr %11) #4
  call void @llvm.lifetime.end.p0(i64 8, ptr %10) #4
  call void @llvm.lifetime.end.p0(i64 8, ptr %9) #4
  ret i32 %166
}