; Function Attrs: null_pointer_is_valid sspstrong uwtable
define internal i32 @dissect_kink(ptr noundef %0, ptr noundef %1, ptr noundef %2, ptr readnone captures(none) %3) #0 {
  %5 = tail call zeroext i8 @tvb_get_uint8(ptr noundef %0, i32 noundef 0)
  %6 = getelementptr inbounds nuw i8, ptr %1, i64 8
  %7 = load ptr, ptr %6, align 8
  tail call void @col_set_str(ptr noundef %7, i32 noundef 35, ptr noundef nonnull @.str.49)
  %8 = load ptr, ptr %6, align 8
  %9 = zext i8 %5 to i32
  %10 = tail call ptr @val_to_str_const(i32 noundef %9, ptr noundef nonnull @kink_type_vals, ptr noundef nonnull @.str.83)
  tail call void @col_set_str(ptr noundef %8, i32 noundef 25, ptr noundef %10)
  %11 = load i32, ptr @proto_kink, align 4
  %12 = tail call ptr @proto_tree_add_item(ptr noundef %2, i32 noundef %11, ptr noundef %0, i32 noundef 0, i32 noundef -1, i32 noundef 0)
  %13 = load i32, ptr @ett_kink, align 4
  %14 = tail call ptr @proto_item_add_subtree(ptr noundef %12, i32 noundef %13)
  %15 = load i32, ptr @hf_kink_type, align 4
  %16 = tail call ptr @proto_tree_add_uint(ptr noundef %14, i32 noundef %15, ptr noundef %0, i32 noundef 0, i32 noundef 1, i32 noundef %9)
  %17 = load i32, ptr @hf_kink_version, align 4
  %18 = tail call ptr @proto_tree_add_item(ptr noundef %14, i32 noundef %17, ptr noundef %0, i32 noundef 1, i32 noundef 1, i32 noundef 0)
  %19 = load i32, ptr @hf_kink_length, align 4
  %20 = tail call ptr @proto_tree_add_item(ptr noundef %14, i32 noundef %19, ptr noundef %0, i32 noundef 2, i32 noundef 2, i32 noundef 0)
  %21 = tail call i32 @tvb_get_ntohl(ptr noundef %0, i32 noundef 4)
  %22 = icmp eq i32 %21, 1
  %23 = load i32, ptr @hf_kink_domain_of_interpretation, align 4
  br i1 %22, label %24, label %26

24:                                               ; preds = %4
  %25 = tail call ptr (ptr, i32, ptr, i32, i32, i32, ptr, ...) @proto_tree_add_uint_format_value(ptr noundef %14, i32 noundef %23, ptr noundef %0, i32 noundef 4, i32 noundef 4, i32 noundef 1, ptr noundef nonnull @.str.84, i32 noundef 1)
  br label %28

26:                                               ; preds = %4
  %27 = tail call ptr (ptr, i32, ptr, i32, i32, i32, ptr, ...) @proto_tree_add_uint_format_value(ptr noundef %14, i32 noundef %23, ptr noundef %0, i32 noundef 4, i32 noundef 4, i32 noundef %21, ptr noundef nonnull @.str.85, i32 noundef %21)
  br label %28

28:                                               ; preds = %26, %24
  %29 = load i32, ptr @hf_kink_transactionId, align 4
  %30 = tail call ptr @proto_tree_add_item(ptr noundef %14, i32 noundef %29, ptr noundef %0, i32 noundef 8, i32 noundef 4, i32 noundef 0)
  %31 = tail call zeroext i8 @tvb_get_uint8(ptr noundef %0, i32 noundef 12)
  %32 = zext i8 %31 to i32
  %33 = load i32, ptr @hf_kink_checkSumLength, align 4
  %34 = tail call ptr @proto_tree_add_item(ptr noundef %14, i32 noundef %33, ptr noundef %0, i32 noundef 12, i32 noundef 1, i32 noundef 0)
  %35 = tail call zeroext i8 @tvb_get_uint8(ptr noundef %0, i32 noundef 13)
  %36 = load i32, ptr @hf_kink_next_payload, align 4
  %37 = zext i8 %35 to i32
  %38 = tail call ptr @proto_tree_add_uint(ptr noundef %14, i32 noundef %36, ptr noundef %0, i32 noundef 13, i32 noundef 1, i32 noundef %37)
  %39 = tail call zeroext i8 @tvb_get_uint8(ptr noundef %0, i32 noundef 14)
  %40 = lshr i8 %39, 7
  %41 = load i32, ptr @hf_kink_A, align 4
  %42 = zext nneg i8 %40 to i32
  %43 = tail call ptr @proto_tree_add_uint(ptr noundef %14, i32 noundef %41, ptr noundef %0, i32 noundef 14, i32 noundef 1, i32 noundef %42)
  %44 = load i32, ptr @hf_kink_reserved15, align 4
  %45 = tail call ptr @proto_tree_add_item(ptr noundef %14, i32 noundef %44, ptr noundef %0, i32 noundef 14, i32 noundef 2, i32 noundef 0)
  %46 = load i32, ptr @hf_kink_checkSum, align 4
  %47 = tail call ptr @proto_tree_add_item(ptr noundef %14, i32 noundef %46, ptr noundef %0, i32 noundef 16, i32 noundef %32, i32 noundef 0)
  %48 = and i32 %32, 3
  %.not = icmp eq i32 %48, 0
  %reass.sub = and i32 %32, 252
  %49 = add nuw nsw i32 %reass.sub, 20
  %50 = add nuw nsw i32 %32, 16
  %.0 = select i1 %.not, i32 %50, i32 %49
  tail call fastcc void @control_payload(ptr noundef %1, ptr noundef %0, i32 noundef %.0, i8 noundef zeroext %35, ptr noundef %14)
  %51 = tail call i32 @tvb_captured_length(ptr noundef %0)
  ret i32 %51
}